target datalayout = "e-m:e-p270:32:32-p271:32:32-p272:64:64-i64:64-i128:128-f80:128-n8:16:32:64-S128"
target triple = "x86_64-pc-linux-gnu"

%struct.TCGHelperInfo = type { ptr, ptr, i64, i64, [14 x %struct.TCGCallArgumentLoc] }
%struct.TCGCallArgumentLoc = type { i32 }

@tcg_ctx = external thread_local global ptr, align 8
@cpuinfo = external global i32, align 4
@helper_info_ctpop_i32 = external global %struct.TCGHelperInfo, align 8
@helper_info_ctpop_i64 = external global %struct.TCGHelperInfo, align 8

; Function Attrs: inlinehint nounwind sspstrong uwtable
define internal ptr @tcgv_i64_temp(ptr noundef %0) #4 {
  %2 = alloca ptr, align 8
  store ptr %0, ptr %2, align 8
  %3 = load ptr, ptr %2, align 8
  %4 = call ptr @tcgv_i32_temp(ptr noundef %3)
  ret ptr %4
}

; Function Attrs: inlinehint nounwind sspstrong uwtable
define internal i64 @temp_arg(ptr noundef %0) #4 {
  %2 = alloca ptr, align 8
  store ptr %0, ptr %2, align 8
  %3 = load ptr, ptr %2, align 8
  %4 = ptrtoint ptr %3 to i64
  ret i64 %4
}

; Function Attrs: inlinehint nounwind sspstrong uwtable
define internal ptr @tcgv_i32_temp(ptr noundef %0) #4 {
  %2 = alloca ptr, align 8
  store ptr %0, ptr %2, align 8
  %3 = call align 8 ptr @llvm.threadlocal.address.p0(ptr align 8 @tcg_ctx)
  %4 = load ptr, ptr %3, align 8
  %5 = load ptr, ptr %2, align 8
  %6 = ptrtoint ptr %5 to i64
  %7 = getelementptr inbounds nuw i8, ptr %4, i64 %6
  ret ptr %7
}

; Function Attrs: inlinehint nounwind sspstrong uwtable
define internal void @gen_helper_ctpop_i64(ptr noundef %0, ptr noundef %1) #4 {
  %3 = alloca ptr, align 8
  %4 = alloca ptr, align 8
  store ptr %0, ptr %3, align 8
  store ptr %1, ptr %4, align 8
  %5 = load ptr, ptr @helper_info_ctpop_i64, align 8
  %6 = load ptr, ptr %3, align 8
  %7 = call ptr @tcgv_i64_temp(ptr noundef %6)
  %8 = load ptr, ptr %4, align 8
  %9 = call ptr @tcgv_i64_temp(ptr noundef %8)
  call void @tcg_gen_call1(ptr noundef %5, ptr noundef @helper_info_ctpop_i64, ptr noundef %7, ptr noundef %9)
  ret void
}

; Function Attrs: nounwind sspstrong uwtable
define internal void @tcg_gen_op2_i64(i32 noundef %0, ptr noundef %1, ptr noundef %2) #3 {
  %4 = alloca i32, align 4
  %5 = alloca ptr, align 8
  %6 = alloca ptr, align 8
  store i32 %0, ptr %4, align 4
  store ptr %1, ptr %5, align 8
  store ptr %2, ptr %6, align 8
  %7 = load i32, ptr %4, align 4
  %8 = load ptr, ptr %5, align 8
  %9 = call i64 @tcgv_i64_arg(ptr noundef %8)
  %10 = load ptr, ptr %6, align 8
  %11 = call i64 @tcgv_i64_arg(ptr noundef %10)
  %12 = call ptr @tcg_gen_op2(i32 noundef %7, i32 noundef 1, i64 noundef %9, i64 noundef %11)
  ret void
}

; Function Attrs: inlinehint nounwind sspstrong uwtable
define internal i64 @tcgv_i64_arg(ptr noundef %0) #4 {
  %2 = alloca ptr, align 8
  store ptr %0, ptr %2, align 8
  %3 = load ptr, ptr %2, align 8
  %4 = call ptr @tcgv_i64_temp(ptr noundef %3)
  %5 = call i64 @temp_arg(ptr noundef %4)
  ret i64 %5
}

; Function Attrs: inlinehint nounwind sspstrong uwtable
define internal i64 @tcgv_i32_arg(ptr noundef %0) #4 {
  %2 = alloca ptr, align 8
  store ptr %0, ptr %2, align 8
  %3 = load ptr, ptr %2, align 8
  %4 = call ptr @tcgv_i32_temp(ptr noundef %3)
  %5 = call i64 @temp_arg(ptr noundef %4)
  ret i64 %5
}

; Function Attrs: inlinehint nounwind sspstrong uwtable
define internal void @gen_helper_ctpop_i32(ptr noundef %0, ptr noundef %1) #4 {
  %3 = alloca ptr, align 8
  %4 = alloca ptr, align 8
  store ptr %0, ptr %3, align 8
  store ptr %1, ptr %4, align 8
  %5 = load ptr, ptr @helper_info_ctpop_i32, align 8
  %6 = load ptr, ptr %3, align 8
  %7 = call ptr @tcgv_i32_temp(ptr noundef %6)
  %8 = load ptr, ptr %4, align 8
  %9 = call ptr @tcgv_i32_temp(ptr noundef %8)
  call void @tcg_gen_call1(ptr noundef %5, ptr noundef @helper_info_ctpop_i32, ptr noundef %7, ptr noundef %9)
  ret void
}

; Function Attrs: nounwind sspstrong uwtable
define dso_local void @tcg_gen_extrl_i64_i32(ptr noundef %0, ptr noundef %1) #3 {
  %3 = alloca ptr, align 8
  %4 = alloca ptr, align 8
  store ptr %0, ptr %3, align 8
  store ptr %1, ptr %4, align 8
  %5 = load ptr, ptr %3, align 8
  %6 = call i64 @tcgv_i32_arg(ptr noundef %5)
  %7 = load ptr, ptr %4, align 8
  %8 = call i64 @tcgv_i64_arg(ptr noundef %7)
  %9 = call ptr @tcg_gen_op2(i32 noundef 101, i32 noundef 0, i64 noundef %6, i64 noundef %8)
  ret void
}

; Function Attrs: nounwind sspstrong uwtable
define dso_local void @tcg_gen_ctpop_i64(ptr noundef %0, ptr noundef %1) #3 {
  %3 = alloca ptr, align 8
  %4 = alloca ptr, align 8
  store ptr %0, ptr %3, align 8
  store ptr %1, ptr %4, align 8
  %5 = load i32, ptr @cpuinfo, align 4
  %6 = and i32 %5, 16
  %7 = icmp ne i32 %6, 0
  br i1 %7, label %8, label %11

8:                                                ; preds = %2
  %9 = load ptr, ptr %3, align 8
  %10 = load ptr, ptr %4, align 8
  call void @tcg_gen_op2_i64(i32 noundef 122, ptr noundef %9, ptr noundef %10)
  br label %14

11:                                               ; preds = %2
  %12 = load ptr, ptr %3, align 8
  %13 = load ptr, ptr %4, align 8
  call void @gen_helper_ctpop_i64(ptr noundef %12, ptr noundef %13)
  br label %14

14:                                               ; preds = %11, %8
  ret void
}

; Function Attrs: nounwind sspstrong uwtable
define dso_local void @tcg_gen_extu_i32_i64(ptr noundef %0, ptr noundef %1) #3 {
  %3 = alloca ptr, align 8
  %4 = alloca ptr, align 8
  store ptr %0, ptr %3, align 8
  store ptr %1, ptr %4, align 8
  %5 = load ptr, ptr %3, align 8
  %6 = call i64 @tcgv_i64_arg(ptr noundef %5)
  %7 = load ptr, ptr %4, align 8
  %8 = call i64 @tcgv_i32_arg(ptr noundef %7)
  %9 = call ptr @tcg_gen_op2(i32 noundef 100, i32 noundef 1, i64 noundef %6, i64 noundef %8)
  ret void
}

; Function Attrs: nounwind sspstrong uwtable
define internal void @tcg_gen_op2_i32(i32 noundef %0, ptr noundef %1, ptr noundef %2) #3 {
  %4 = alloca i32, align 4
  %5 = alloca ptr, align 8
  %6 = alloca ptr, align 8
  store i32 %0, ptr %4, align 4
  store ptr %1, ptr %5, align 8
  store ptr %2, ptr %6, align 8
  %7 = load i32, ptr %4, align 4
  %8 = load ptr, ptr %5, align 8
  %9 = call i64 @tcgv_i32_arg(ptr noundef %8)
  %10 = load ptr, ptr %6, align 8
  %11 = call i64 @tcgv_i32_arg(ptr noundef %10)
  %12 = call ptr @tcg_gen_op2(i32 noundef %7, i32 noundef 0, i64 noundef %9, i64 noundef %11)
  ret void
}

; Function Attrs: nounwind sspstrong uwtable
define dso_local void @tcg_gen_ctpop_i32(ptr noundef %0, ptr noundef %1) #3 {
  %3 = alloca ptr, align 8
  %4 = alloca ptr, align 8
  %5 = alloca ptr, align 8
  store ptr %0, ptr %3, align 8
  store ptr %1, ptr %4, align 8
  %6 = load i32, ptr @cpuinfo, align 4
  %7 = and i32 %6, 16
  %8 = icmp ne i32 %7, 0
  br i1 %8, label %9, label %12

9:                                                ; preds = %2
  %10 = load ptr, ptr %3, align 8
  %11 = load ptr, ptr %4, align 8
  call void @tcg_gen_op2_i32(i32 noundef 62, ptr noundef %10, ptr noundef %11)
  br label %29

12:                                               ; preds = %2
  %13 = load i32, ptr @cpuinfo, align 4
  %14 = and i32 %13, 16
  %15 = icmp ne i32 %14, 0
  br i1 %15, label %16, label %25

16:                                               ; preds = %12
  call void @llvm.lifetime.start.p0(i64 8, ptr %5) #7
  %17 = call ptr @tcg_temp_ebb_new_i64()
  store ptr %17, ptr %5, align 8
  %18 = load ptr, ptr %5, align 8
  %19 = load ptr, ptr %4, align 8
  call void @tcg_gen_extu_i32_i64(ptr noundef %18, ptr noundef %19)
  %20 = load ptr, ptr %5, align 8
  %21 = load ptr, ptr %5, align 8
  call void @tcg_gen_ctpop_i64(ptr noundef %20, ptr noundef %21)
  %22 = load ptr, ptr %3, align 8
  %23 = load ptr, ptr %5, align 8
  call void @tcg_gen_extrl_i64_i32(ptr noundef %22, ptr noundef %23)
  %24 = load ptr, ptr %5, align 8
  call void @tcg_temp_free_i64(ptr noundef %24)
  call void @llvm.lifetime.end.p0(i64 8, ptr %5) #7
  br label %28

25:                                               ; preds = %12
  %26 = load ptr, ptr %3, align 8
  %27 = load ptr, ptr %4, align 8
  call void @gen_helper_ctpop_i32(ptr noundef %26, ptr noundef %27)
  br label %28

28:                                               ; preds = %25, %16
  br label %29

29:                                               ; preds = %28, %9
  ret void
}