; Function Attrs: nounwind sspstrong uwtable
define dso_local void @tcg_gen_ctpop_i32(ptr noundef %0, ptr noundef %1) local_unnamed_addr #2 {
  %3 = load i32, ptr @cpuinfo, align 4
  %4 = and i32 %3, 16
  %.not = icmp eq i32 %4, 0
  %5 = ptrtoint ptr %1 to i64
  br i1 %.not, label %15, label %6

6:                                                ; preds = %2
  %7 = tail call align 8 ptr @llvm.threadlocal.address.p0(ptr align 8 @tcg_ctx)
  %8 = load ptr, ptr %7, align 8
  %9 = ptrtoint ptr %0 to i64
  %10 = getelementptr inbounds nuw i8, ptr %8, i64 %9
  %11 = ptrtoint ptr %10 to i64
  %12 = getelementptr inbounds nuw i8, ptr %8, i64 %5
  %13 = ptrtoint ptr %12 to i64
  %14 = tail call ptr @tcg_gen_op2(i32 noundef 62, i32 noundef 0, i64 noundef %11, i64 noundef %13)
  br label %22

15:                                               ; preds = %2
  %16 = load ptr, ptr @helper_info_ctpop_i32, align 8
  %17 = tail call align 8 ptr @llvm.threadlocal.address.p0(ptr align 8 @tcg_ctx)
  %18 = load ptr, ptr %17, align 8
  %19 = ptrtoint ptr %0 to i64
  %20 = getelementptr inbounds nuw i8, ptr %18, i64 %19
  %21 = getelementptr inbounds nuw i8, ptr %18, i64 %5
  tail call void @tcg_gen_call1(ptr noundef %16, ptr noundef nonnull @helper_info_ctpop_i32, ptr noundef %20, ptr noundef %21) #6
  br label %22

22:                                               ; preds = %15, %6
  ret void
}